target datalayout = "e-m:e-p270:32:32-p271:32:32-p272:64:64-i64:64-i128:128-f80:128-n8:16:32:64-S128"
target triple = "x86_64-pc-linux-gnu"

@hf_bssgp_num_pfc = internal global i32 0, align 4
@.str.2 = private unnamed_addr constant [9 x i8] c"Reserved\00", align 1
@.str.3 = private unnamed_addr constant [9 x i8] c"PFC (%u)\00", align 1
@ett_bssgp_pfc_flow_control_parameters_pfc = internal global i32 0, align 4

; Function Attrs: null_pointer_is_valid sspstrong uwtable
define internal zeroext i16 @de_bssgp_active_pfcs_list(ptr noundef %0, ptr noundef %1, ptr noundef %2, i32 noundef %3, i32 noundef %4, ptr noundef %5, i32 noundef %6) #1 {
  %8 = alloca i16, align 2
  %9 = alloca ptr, align 8
  %10 = alloca ptr, align 8
  %11 = alloca ptr, align 8
  %12 = alloca i32, align 4
  %13 = alloca i32, align 4
  %14 = alloca ptr, align 8
  %15 = alloca i32, align 4
  %16 = alloca ptr, align 8
  %17 = alloca i32, align 4
  %18 = alloca i8, align 1
  %19 = alloca i8, align 1
  %20 = alloca i32, align 4
  store ptr %0, ptr %9, align 8
  store ptr %1, ptr %10, align 8
  store ptr %2, ptr %11, align 8
  store i32 %3, ptr %12, align 4
  store i32 %4, ptr %13, align 4
  store ptr %5, ptr %14, align 8
  store i32 %6, ptr %15, align 4
  call void @llvm.lifetime.start.p0(i64 8, ptr %16) #4
  call void @llvm.lifetime.start.p0(i64 4, ptr %17) #4
  call void @llvm.lifetime.start.p0(i64 1, ptr %18) #4
  call void @llvm.lifetime.start.p0(i64 1, ptr %19) #4
  %21 = load i32, ptr %12, align 4
  store i32 %21, ptr %17, align 4
  %22 = load ptr, ptr %9, align 8
  %23 = load i32, ptr %17, align 4
  %24 = call zeroext i8 @tvb_get_uint8(ptr noundef %22, i32 noundef %23)
  store i8 %24, ptr %18, align 1
  %25 = load i8, ptr %18, align 1
  %26 = zext i8 %25 to i32
  %27 = icmp slt i32 %26, 12
  br i1 %27, label %28, label %36

28:                                               ; preds = %7
  %29 = load ptr, ptr %10, align 8
  %30 = load i32, ptr @hf_bssgp_num_pfc, align 4
  %31 = load ptr, ptr %9, align 8
  %32 = load i32, ptr %17, align 4
  %33 = load i8, ptr %18, align 1
  %34 = zext i8 %33 to i32
  %35 = call ptr @proto_tree_add_uint(ptr noundef %29, i32 noundef %30, ptr noundef %31, i32 noundef %32, i32 noundef 1, i32 noundef %34)
  br label %48

36:                                               ; preds = %7
  %37 = load ptr, ptr %10, align 8
  %38 = load i32, ptr @hf_bssgp_num_pfc, align 4
  %39 = load ptr, ptr %9, align 8
  %40 = load i32, ptr %17, align 4
  %41 = load i8, ptr %18, align 1
  %42 = zext i8 %41 to i32
  %43 = call ptr (ptr, i32, ptr, i32, i32, i32, ptr, ...) @proto_tree_add_uint_format_value(ptr noundef %37, i32 noundef %38, ptr noundef %39, i32 noundef %40, i32 noundef 1, i32 noundef %42, ptr noundef @.str.2)
  %44 = load i32, ptr %17, align 4
  %45 = load i32, ptr %12, align 4
  %46 = sub i32 %44, %45
  %47 = trunc i32 %46 to i16
  store i16 %47, ptr %8, align 2
  store i32 1, ptr %20, align 4
  br label %90

48:                                               ; preds = %28
  %49 = load i32, ptr %17, align 4
  %50 = add i32 %49, 1
  store i32 %50, ptr %17, align 4
  %51 = load i8, ptr %18, align 1
  %52 = zext i8 %51 to i32
  %53 = icmp eq i32 %52, 0
  br i1 %53, label %54, label %59

54:                                               ; preds = %48
  %55 = load i32, ptr %17, align 4
  %56 = load i32, ptr %12, align 4
  %57 = sub i32 %55, %56
  %58 = trunc i32 %57 to i16
  store i16 %58, ptr %8, align 2
  store i32 1, ptr %20, align 4
  br label %90

59:                                               ; preds = %48
  store i8 0, ptr %19, align 1
  br label %60

60:                                               ; preds = %82, %59
  %61 = load i8, ptr %19, align 1
  %62 = zext i8 %61 to i32
  %63 = load i8, ptr %18, align 1
  %64 = zext i8 %63 to i32
  %65 = icmp slt i32 %62, %64
  br i1 %65, label %66, label %85

66:                                               ; preds = %60
  %67 = load ptr, ptr %10, align 8
  %68 = load ptr, ptr %9, align 8
  %69 = load i32, ptr %17, align 4
  %70 = load i32, ptr @ett_bssgp_pfc_flow_control_parameters_pfc, align 4
  %71 = load i8, ptr %19, align 1
  %72 = zext i8 %71 to i32
  %73 = add i32 %72, 1
  %74 = call ptr (ptr, ptr, i32, i32, i32, ptr, ptr, ...) @proto_tree_add_subtree_format(ptr noundef %67, ptr noundef %68, i32 noundef %69, i32 noundef 1, i32 noundef %70, ptr noundef null, ptr noundef @.str.3, i32 noundef %73)
  store ptr %74, ptr %16, align 8
  %75 = load ptr, ptr %9, align 8
  %76 = load ptr, ptr %16, align 8
  %77 = load ptr, ptr %11, align 8
  %78 = load i32, ptr %17, align 4
  %79 = call zeroext i16 @de_sm_pflow_id(ptr noundef %75, ptr noundef %76, ptr noundef %77, i32 noundef %78, i32 noundef 1, ptr noundef null, i32 noundef 0)
  %80 = load i32, ptr %17, align 4
  %81 = add i32 %80, 1
  store i32 %81, ptr %17, align 4
  br label %82

82:                                               ; preds = %66
  %83 = load i8, ptr %19, align 1
  %84 = add i8 %83, 1
  store i8 %84, ptr %19, align 1
  br label %60, !llvm.loop !17

85:                                               ; preds = %60
  %86 = load i32, ptr %17, align 4
  %87 = load i32, ptr %12, align 4
  %88 = sub i32 %86, %87
  %89 = trunc i32 %88 to i16
  store i16 %89, ptr %8, align 2
  store i32 1, ptr %20, align 4
  br label %90

90:                                               ; preds = %85, %54, %36
  call void @llvm.lifetime.end.p0(i64 1, ptr %19) #4
  call void @llvm.lifetime.end.p0(i64 1, ptr %18) #4
  call void @llvm.lifetime.end.p0(i64 4, ptr %17) #4
  call void @llvm.lifetime.end.p0(i64 8, ptr %16) #4
  %91 = load i16, ptr %8, align 2
  ret i16 %91
}