; Function Attrs: null_pointer_is_valid sspstrong uwtable
define internal noundef zeroext i16 @de_bssgp_active_pfcs_list(ptr noundef %0, ptr noundef %1, ptr noundef %2, i32 noundef %3, i32 %4, ptr readnone captures(none) %5, i32 %6) #1 {
  %8 = tail call zeroext i8 @tvb_get_uint8(ptr noundef %0, i32 noundef %3)
  %9 = zext i8 %8 to i32
  %10 = icmp ult i8 %8, 12
  %11 = load i32, ptr @hf_bssgp_num_pfc, align 4
  br i1 %10, label %12, label %15

12:                                               ; preds = %7
  %13 = tail call ptr @proto_tree_add_uint(ptr noundef %1, i32 noundef %11, ptr noundef %0, i32 noundef %3, i32 noundef 1, i32 noundef %9)
  %14 = icmp eq i8 %8, 0
  br i1 %14, label %25, label %.preheader

.preheader:                                       ; preds = %12
  %.03336 = add i32 %3, 1
  br label %17

15:                                               ; preds = %7
  %16 = tail call ptr (ptr, i32, ptr, i32, i32, i32, ptr, ...) @proto_tree_add_uint_format_value(ptr noundef %1, i32 noundef %11, ptr noundef %0, i32 noundef %3, i32 noundef 1, i32 noundef %9, ptr noundef nonnull @.str.2)
  br label %25

17:                                               ; preds = %.preheader, %17
  %indvars.iv = phi i32 [ 0, %.preheader ], [ %19, %17 ]
  %.03338 = phi i32 [ %.03336, %.preheader ], [ %.033, %17 ]
  %18 = load i32, ptr @ett_bssgp_pfc_flow_control_parameters_pfc, align 4
  %19 = add nuw nsw i32 %indvars.iv, 1
  %20 = tail call ptr (ptr, ptr, i32, i32, i32, ptr, ptr, ...) @proto_tree_add_subtree_format(ptr noundef %1, ptr noundef %0, i32 noundef %.03338, i32 noundef 1, i32 noundef %18, ptr noundef null, ptr noundef nonnull @.str.3, i32 noundef %19)
  %21 = tail call zeroext i16 @de_sm_pflow_id(ptr noundef %0, ptr noundef %20, ptr noundef %2, i32 noundef %.03338, i32 noundef 1, ptr noundef null, i32 noundef 0)
  %.033 = add i32 %.03338, 1
  %exitcond.not = icmp eq i32 %19, %9
  br i1 %exitcond.not, label %22, label %17, !llvm.loop !15

22:                                               ; preds = %17
  %23 = sub i32 %.033, %3
  %24 = trunc i32 %23 to i16
  br label %25

25:                                               ; preds = %12, %22, %15
  %.032 = phi i16 [ %24, %22 ], [ 0, %15 ], [ 1, %12 ]
  ret i16 %.032
}